target datalayout = "e-m:e-p270:32:32-p271:32:32-p272:64:64-i64:64-i128:128-f80:128-n8:16:32:64-S128"
target triple = "x86_64-pc-linux-gnu"

%struct._generic_SUNLinearSolver = type { ptr, ptr, ptr }
%struct._generic_SUNLinearSolver_Ops = type { ptr, ptr, ptr, ptr, ptr, ptr, ptr, ptr, ptr, ptr, ptr, ptr, ptr, ptr, ptr }
%struct.KINMemRec = type { ptr, double, ptr, ptr, double, double, i32, i64, i64, i64, i64, i32, i32, i32, i32, i32, i32, i32, i32, double, double, double, double, double, double, double, double, double, i32, double, i64, i64, i64, i64, i64, i64, i64, ptr, ptr, ptr, ptr, ptr, ptr, ptr, ptr, ptr, ptr, ptr, i32, i32, double, ptr, ptr, ptr, ptr, ptr, double, ptr, ptr, ptr, ptr, i64, i64, i32, ptr, ptr, i32, ptr, ptr, i64, i64, i64, i64, ptr, ptr, ptr, ptr, i32, ptr, double, double, double, double, double, i32, double, double, double, i32 }
%struct.KINLsMemRec = type { i32, i32, i32, ptr, ptr, ptr, ptr, double, i64, i64, i64, i64, i64, i64, i64, i32, i32, ptr, ptr, ptr, ptr, i32, ptr, ptr, ptr }

@.str = private unnamed_addr constant [118 x i8] c"generated/home/dtcxzyw/WorkSpace/Projects/compilers/llvm-opt-benchmark/bench/sundials/sundials/src/kinsol/kinsol_ls.c\00", align 1
@.str.26 = private unnamed_addr constant [30 x i8] c"Linear solver memory is NULL.\00", align 1
@__func__.kinLsSolve = private unnamed_addr constant [11 x i8] c"kinLsSolve\00", align 1
@.str.33 = private unnamed_addr constant [6 x i8] c"KINLS\00", align 1
@.str.34 = private unnamed_addr constant [13 x i8] c"nli_inc = %d\00", align 1
@.str.35 = private unnamed_addr constant [38 x i8] c"Failure in SUNLinSol external package\00", align 1
@.str.36 = private unnamed_addr constant [65 x i8] c"The Jacobian x vector routine failed in an unrecoverable manner.\00", align 1
@.str.37 = private unnamed_addr constant [68 x i8] c"The preconditioner solve routine failed in an unrecoverable manner.\00", align 1
@.str.38 = private unnamed_addr constant [39 x i8] c"residual norm = %12.3lg  eps = %12.3lg\00", align 1

; Function Attrs: nounwind uwtable
define i32 @kinLsSolve(ptr noundef %0, ptr noundef %1, ptr noundef %2, ptr noundef %3, ptr noundef %4) #0 {
  %6 = alloca i32, align 4
  %7 = alloca ptr, align 8
  %8 = alloca ptr, align 8
  %9 = alloca ptr, align 8
  %10 = alloca ptr, align 8
  %11 = alloca ptr, align 8
  %12 = alloca ptr, align 8
  %13 = alloca i32, align 4
  %14 = alloca i32, align 4
  %15 = alloca double, align 8
  %16 = alloca double, align 8
  %17 = alloca i32, align 4
  store ptr %0, ptr %7, align 8, !tbaa !11
  store ptr %1, ptr %8, align 8, !tbaa !85
  store ptr %2, ptr %9, align 8, !tbaa !85
  store ptr %3, ptr %10, align 8, !tbaa !86
  store ptr %4, ptr %11, align 8, !tbaa !86
  call void @llvm.lifetime.start.p0(i64 8, ptr %12) #7
  call void @llvm.lifetime.start.p0(i64 4, ptr %13) #7
  call void @llvm.lifetime.start.p0(i64 4, ptr %14) #7
  call void @llvm.lifetime.start.p0(i64 8, ptr %15) #7
  call void @llvm.lifetime.start.p0(i64 8, ptr %16) #7
  %18 = load ptr, ptr %7, align 8, !tbaa !11
  %19 = getelementptr inbounds nuw %struct.KINMemRec, ptr %18, i32 0, i32 78
  %20 = load ptr, ptr %19, align 8, !tbaa !66
  %21 = icmp eq ptr %20, null
  br i1 %21, label %22, label %24

22:                                               ; preds = %5
  %23 = load ptr, ptr %7, align 8, !tbaa !11
  call void (ptr, i32, i32, ptr, ptr, ptr, ...) @KINProcessError(ptr noundef %23, i32 noundef -2, i32 noundef 1216, ptr noundef @__func__.kinLsSolve, ptr noundef @.str, ptr noundef @.str.26)
  store i32 -2, ptr %6, align 4
  store i32 1, ptr %17, align 4
  br label %212

24:                                               ; preds = %5
  %25 = load ptr, ptr %7, align 8, !tbaa !11
  %26 = getelementptr inbounds nuw %struct.KINMemRec, ptr %25, i32 0, i32 78
  %27 = load ptr, ptr %26, align 8, !tbaa !66
  store ptr %27, ptr %12, align 8, !tbaa !45
  %28 = load ptr, ptr %7, align 8, !tbaa !11
  %29 = getelementptr inbounds nuw %struct.KINMemRec, ptr %28, i32 0, i32 24
  %30 = load double, ptr %29, align 8, !tbaa !87
  %31 = load ptr, ptr %12, align 8, !tbaa !45
  %32 = getelementptr inbounds nuw %struct.KINLsMemRec, ptr %31, i32 0, i32 7
  %33 = load double, ptr %32, align 8, !tbaa !64
  %34 = fmul double %30, %33
  store double %34, ptr %16, align 8, !tbaa !88
  %35 = load ptr, ptr %8, align 8, !tbaa !85
  call void @N_VConst(double noundef 0.000000e+00, ptr noundef %35)
  %36 = load ptr, ptr %12, align 8, !tbaa !45
  %37 = getelementptr inbounds nuw %struct.KINLsMemRec, ptr %36, i32 0, i32 5
  %38 = load ptr, ptr %37, align 8, !tbaa !47
  %39 = call i32 @SUNLinSolSetZeroGuess(ptr noundef %38, i32 noundef 1)
  store i32 %39, ptr %14, align 4, !tbaa !20
  %40 = load i32, ptr %14, align 4, !tbaa !20
  %41 = icmp ne i32 %40, 0
  br i1 %41, label %42, label %43

42:                                               ; preds = %24
  store i32 -1, ptr %6, align 4
  store i32 1, ptr %17, align 4
  br label %212

43:                                               ; preds = %24
  %44 = load ptr, ptr %12, align 8, !tbaa !45
  %45 = getelementptr inbounds nuw %struct.KINLsMemRec, ptr %44, i32 0, i32 15
  store i32 1, ptr %45, align 8, !tbaa !89
  %46 = load ptr, ptr %12, align 8, !tbaa !45
  %47 = getelementptr inbounds nuw %struct.KINLsMemRec, ptr %46, i32 0, i32 5
  %48 = load ptr, ptr %47, align 8, !tbaa !47
  %49 = load ptr, ptr %12, align 8, !tbaa !45
  %50 = getelementptr inbounds nuw %struct.KINLsMemRec, ptr %49, i32 0, i32 6
  %51 = load ptr, ptr %50, align 8, !tbaa !65
  %52 = load ptr, ptr %8, align 8, !tbaa !85
  %53 = load ptr, ptr %9, align 8, !tbaa !85
  %54 = load double, ptr %16, align 8, !tbaa !88
  %55 = call i32 @SUNLinSolSolve(ptr noundef %48, ptr noundef %51, ptr noundef %52, ptr noundef %53, double noundef %54)
  store i32 %55, ptr %14, align 4, !tbaa !20
  store double 0.000000e+00, ptr %15, align 8, !tbaa !88
  %56 = load ptr, ptr %12, align 8, !tbaa !45
  %57 = getelementptr inbounds nuw %struct.KINLsMemRec, ptr %56, i32 0, i32 5
  %58 = load ptr, ptr %57, align 8, !tbaa !47
  %59 = getelementptr inbounds nuw %struct._generic_SUNLinearSolver, ptr %58, i32 0, i32 1
  %60 = load ptr, ptr %59, align 8, !tbaa !13
  %61 = getelementptr inbounds nuw %struct._generic_SUNLinearSolver_Ops, ptr %60, i32 0, i32 10
  %62 = load ptr, ptr %61, align 8, !tbaa !90
  %63 = icmp ne ptr %62, null
  br i1 %63, label %64, label %69

64:                                               ; preds = %43
  %65 = load ptr, ptr %12, align 8, !tbaa !45
  %66 = getelementptr inbounds nuw %struct.KINLsMemRec, ptr %65, i32 0, i32 5
  %67 = load ptr, ptr %66, align 8, !tbaa !47
  %68 = call double @SUNLinSolResNorm(ptr noundef %67)
  store double %68, ptr %15, align 8, !tbaa !88
  br label %69

69:                                               ; preds = %64, %43
  store i32 0, ptr %13, align 4, !tbaa !20
  %70 = load ptr, ptr %12, align 8, !tbaa !45
  %71 = getelementptr inbounds nuw %struct.KINLsMemRec, ptr %70, i32 0, i32 5
  %72 = load ptr, ptr %71, align 8, !tbaa !47
  %73 = getelementptr inbounds nuw %struct._generic_SUNLinearSolver, ptr %72, i32 0, i32 1
  %74 = load ptr, ptr %73, align 8, !tbaa !13
  %75 = getelementptr inbounds nuw %struct._generic_SUNLinearSolver_Ops, ptr %74, i32 0, i32 9
  %76 = load ptr, ptr %75, align 8, !tbaa !91
  %77 = icmp ne ptr %76, null
  br i1 %77, label %78, label %83

78:                                               ; preds = %69
  %79 = load ptr, ptr %12, align 8, !tbaa !45
  %80 = getelementptr inbounds nuw %struct.KINLsMemRec, ptr %79, i32 0, i32 5
  %81 = load ptr, ptr %80, align 8, !tbaa !47
  %82 = call i32 @SUNLinSolNumIters(ptr noundef %81)
  store i32 %82, ptr %13, align 4, !tbaa !20
  br label %83

83:                                               ; preds = %78, %69
  %84 = load ptr, ptr %12, align 8, !tbaa !45
  %85 = getelementptr inbounds nuw %struct.KINLsMemRec, ptr %84, i32 0, i32 0
  %86 = load i32, ptr %85, align 8, !tbaa !78
  %87 = icmp ne i32 %86, 0
  br i1 %87, label %88, label %91

88:                                               ; preds = %83
  %89 = load ptr, ptr %7, align 8, !tbaa !11
  %90 = load i32, ptr %13, align 4, !tbaa !20
  call void (ptr, i32, ptr, ptr, ptr, ...) @KINPrintInfo(ptr noundef %89, i32 noundef 101, ptr noundef @.str.33, ptr noundef @__func__.kinLsSolve, ptr noundef @.str.34, i32 noundef %90)
  br label %91

91:                                               ; preds = %88, %83
  %92 = load i32, ptr %13, align 4, !tbaa !20
  %93 = sext i32 %92 to i64
  %94 = load ptr, ptr %12, align 8, !tbaa !45
  %95 = getelementptr inbounds nuw %struct.KINLsMemRec, ptr %94, i32 0, i32 11
  %96 = load i64, ptr %95, align 8, !tbaa !92
  %97 = add nsw i64 %96, %93
  store i64 %97, ptr %95, align 8, !tbaa !92
  %98 = load i32, ptr %14, align 4, !tbaa !20
  %99 = icmp ne i32 %98, 0
  br i1 %99, label %100, label %105

100:                                              ; preds = %91
  %101 = load ptr, ptr %12, align 8, !tbaa !45
  %102 = getelementptr inbounds nuw %struct.KINLsMemRec, ptr %101, i32 0, i32 13
  %103 = load i64, ptr %102, align 8, !tbaa !93
  %104 = add nsw i64 %103, 1
  store i64 %104, ptr %102, align 8, !tbaa !93
  br label %105

105:                                              ; preds = %100, %91
  %106 = load i32, ptr %14, align 4, !tbaa !20
  %107 = load ptr, ptr %12, align 8, !tbaa !45
  %108 = getelementptr inbounds nuw %struct.KINLsMemRec, ptr %107, i32 0, i32 16
  store i32 %106, ptr %108, align 4, !tbaa !62
  %109 = load i32, ptr %14, align 4, !tbaa !20
  %110 = icmp ne i32 %109, 0
  br i1 %110, label %111, label %128

111:                                              ; preds = %105
  %112 = load i32, ptr %14, align 4, !tbaa !20
  %113 = icmp ne i32 %112, 801
  br i1 %113, label %114, label %128

114:                                              ; preds = %111
  %115 = load i32, ptr %14, align 4, !tbaa !20
  switch i32 %115, label %126 [
    i32 803, label %116
    i32 805, label %116
    i32 -9999, label %117
    i32 -9998, label %117
    i32 -9989, label %117
    i32 -810, label %117
    i32 802, label %117
    i32 807, label %117
    i32 808, label %117
    i32 -811, label %117
    i32 806, label %118
    i32 -9987, label %120
    i32 -805, label %122
    i32 -808, label %124
  ]

116:                                              ; preds = %114, %114
  store i32 1, ptr %6, align 4
  store i32 1, ptr %17, align 4
  br label %212

117:                                              ; preds = %114, %114, %114, %114, %114, %114, %114, %114
  br label %126

118:                                              ; preds = %114
  %119 = load ptr, ptr %7, align 8, !tbaa !11
  call void (ptr, i32, i32, ptr, ptr, ptr, ...) @KINProcessError(ptr noundef %119, i32 noundef 806, i32 noundef 1281, ptr noundef @__func__.kinLsSolve, ptr noundef @.str, ptr noundef @.str.35)
  br label %126

120:                                              ; preds = %114
  %121 = load ptr, ptr %7, align 8, !tbaa !11
  call void (ptr, i32, i32, ptr, ptr, ptr, ...) @KINProcessError(ptr noundef %121, i32 noundef -9987, i32 noundef 1285, ptr noundef @__func__.kinLsSolve, ptr noundef @.str, ptr noundef @.str.35)
  br label %126

122:                                              ; preds = %114
  %123 = load ptr, ptr %7, align 8, !tbaa !11
  call void (ptr, i32, i32, ptr, ptr, ptr, ...) @KINProcessError(ptr noundef %123, i32 noundef -805, i32 noundef 1289, ptr noundef @__func__.kinLsSolve, ptr noundef @.str, ptr noundef @.str.36)
  br label %126

124:                                              ; preds = %114
  %125 = load ptr, ptr %7, align 8, !tbaa !11
  call void (ptr, i32, i32, ptr, ptr, ptr, ...) @KINProcessError(ptr noundef %125, i32 noundef -808, i32 noundef 1293, ptr noundef @__func__.kinLsSolve, ptr noundef @.str, ptr noundef @.str.37)
  br label %126

126:                                              ; preds = %114, %124, %122, %120, %118, %117
  %127 = load i32, ptr %14, align 4, !tbaa !20
  store i32 %127, ptr %6, align 4
  store i32 1, ptr %17, align 4
  br label %212

128:                                              ; preds = %111, %105
  %129 = load ptr, ptr %7, align 8, !tbaa !11
  %130 = getelementptr inbounds nuw %struct.KINMemRec, ptr %129, i32 0, i32 6
  %131 = load i32, ptr %130, align 8, !tbaa !76
  %132 = icmp ne i32 %131, 3
  br i1 %132, label %133, label %200

133:                                              ; preds = %128
  %134 = load ptr, ptr %7, align 8, !tbaa !11
  %135 = getelementptr inbounds nuw %struct.KINMemRec, ptr %134, i32 0, i32 77
  %136 = load i32, ptr %135, align 8, !tbaa !41
  %137 = icmp ne i32 %136, 0
  br i1 %137, label %138, label %167

138:                                              ; preds = %133
  %139 = load ptr, ptr %7, align 8, !tbaa !11
  %140 = getelementptr inbounds nuw %struct.KINMemRec, ptr %139, i32 0, i32 11
  %141 = load i32, ptr %140, align 8, !tbaa !94
  %142 = icmp eq i32 %141, 1
  br i1 %142, label %143, label %167

143:                                              ; preds = %138
  %144 = load ptr, ptr %7, align 8, !tbaa !11
  %145 = load ptr, ptr %8, align 8, !tbaa !85
  %146 = load ptr, ptr %9, align 8, !tbaa !85
  %147 = call i32 @kinLsATimes(ptr noundef %144, ptr noundef %145, ptr noundef %146)
  store i32 %147, ptr %14, align 4, !tbaa !20
  %148 = load i32, ptr %14, align 4, !tbaa !20
  %149 = icmp sgt i32 %148, 0
  br i1 %149, label %150, label %153

150:                                              ; preds = %143
  %151 = load ptr, ptr %12, align 8, !tbaa !45
  %152 = getelementptr inbounds nuw %struct.KINLsMemRec, ptr %151, i32 0, i32 16
  store i32 803, ptr %152, align 4, !tbaa !62
  store i32 1, ptr %6, align 4
  store i32 1, ptr %17, align 4
  br label %212

153:                                              ; preds = %143
  %154 = load i32, ptr %14, align 4, !tbaa !20
  %155 = icmp slt i32 %154, 0
  br i1 %155, label %156, label %159

156:                                              ; preds = %153
  %157 = load ptr, ptr %12, align 8, !tbaa !45
  %158 = getelementptr inbounds nuw %struct.KINLsMemRec, ptr %157, i32 0, i32 16
  store i32 -805, ptr %158, align 4, !tbaa !62
  store i32 -1, ptr %6, align 4
  store i32 1, ptr %17, align 4
  br label %212

159:                                              ; preds = %153
  br label %160

160:                                              ; preds = %159
  %161 = load ptr, ptr %9, align 8, !tbaa !85
  %162 = load ptr, ptr %7, align 8, !tbaa !11
  %163 = getelementptr inbounds nuw %struct.KINMemRec, ptr %162, i32 0, i32 42
  %164 = load ptr, ptr %163, align 8, !tbaa !77
  %165 = call double @N_VWL2Norm(ptr noundef %161, ptr noundef %164)
  %166 = load ptr, ptr %10, align 8, !tbaa !86
  store double %165, ptr %166, align 8, !tbaa !88
  br label %167

167:                                              ; preds = %160, %138, %133
  %168 = load ptr, ptr %7, align 8, !tbaa !11
  %169 = getelementptr inbounds nuw %struct.KINMemRec, ptr %168, i32 0, i32 77
  %170 = load i32, ptr %169, align 8, !tbaa !41
  %171 = icmp ne i32 %170, 0
  br i1 %171, label %172, label %177

172:                                              ; preds = %167
  %173 = load ptr, ptr %7, align 8, !tbaa !11
  %174 = getelementptr inbounds nuw %struct.KINMemRec, ptr %173, i32 0, i32 11
  %175 = load i32, ptr %174, align 8, !tbaa !94
  %176 = icmp eq i32 %175, 1
  br i1 %176, label %182, label %177

177:                                              ; preds = %172, %167
  %178 = load ptr, ptr %7, align 8, !tbaa !11
  %179 = getelementptr inbounds nuw %struct.KINMemRec, ptr %178, i32 0, i32 6
  %180 = load i32, ptr %179, align 8, !tbaa !76
  %181 = icmp eq i32 %180, 1
  br i1 %181, label %182, label %199

182:                                              ; preds = %177, %172
  %183 = load ptr, ptr %9, align 8, !tbaa !85
  %184 = load ptr, ptr %7, align 8, !tbaa !11
  %185 = getelementptr inbounds nuw %struct.KINMemRec, ptr %184, i32 0, i32 42
  %186 = load ptr, ptr %185, align 8, !tbaa !77
  %187 = load ptr, ptr %9, align 8, !tbaa !85
  call void @N_VProd(ptr noundef %183, ptr noundef %186, ptr noundef %187)
  %188 = load ptr, ptr %9, align 8, !tbaa !85
  %189 = load ptr, ptr %7, align 8, !tbaa !11
  %190 = getelementptr inbounds nuw %struct.KINMemRec, ptr %189, i32 0, i32 42
  %191 = load ptr, ptr %190, align 8, !tbaa !77
  %192 = load ptr, ptr %9, align 8, !tbaa !85
  call void @N_VProd(ptr noundef %188, ptr noundef %191, ptr noundef %192)
  %193 = load ptr, ptr %7, align 8, !tbaa !11
  %194 = getelementptr inbounds nuw %struct.KINMemRec, ptr %193, i32 0, i32 39
  %195 = load ptr, ptr %194, align 8, !tbaa !81
  %196 = load ptr, ptr %9, align 8, !tbaa !85
  %197 = call double @N_VDotProd(ptr noundef %195, ptr noundef %196)
  %198 = load ptr, ptr %11, align 8, !tbaa !86
  store double %197, ptr %198, align 8, !tbaa !88
  br label %199

199:                                              ; preds = %182, %177
  br label %200

200:                                              ; preds = %199, %128
  %201 = load ptr, ptr %7, align 8, !tbaa !11
  %202 = getelementptr inbounds nuw %struct.KINMemRec, ptr %201, i32 0, i32 77
  %203 = load i32, ptr %202, align 8, !tbaa !41
  %204 = icmp ne i32 %203, 0
  br i1 %204, label %205, label %211

205:                                              ; preds = %200
  %206 = load ptr, ptr %7, align 8, !tbaa !11
  %207 = load double, ptr %15, align 8, !tbaa !88
  %208 = load ptr, ptr %7, align 8, !tbaa !11
  %209 = getelementptr inbounds nuw %struct.KINMemRec, ptr %208, i32 0, i32 24
  %210 = load double, ptr %209, align 8, !tbaa !87
  call void (ptr, i32, ptr, ptr, ptr, ...) @KINPrintInfo(ptr noundef %206, i32 noundef 102, ptr noundef @.str.33, ptr noundef @__func__.kinLsSolve, ptr noundef @.str.38, double noundef %207, double noundef %210)
  br label %211

211:                                              ; preds = %205, %200
  store i32 0, ptr %6, align 4
  store i32 1, ptr %17, align 4
  br label %212

212:                                              ; preds = %211, %156, %150, %126, %116, %42, %22
  call void @llvm.lifetime.end.p0(i64 8, ptr %16) #7
  call void @llvm.lifetime.end.p0(i64 8, ptr %15) #7
  call void @llvm.lifetime.end.p0(i64 4, ptr %14) #7
  call void @llvm.lifetime.end.p0(i64 4, ptr %13) #7
  call void @llvm.lifetime.end.p0(i64 8, ptr %12) #7
  %213 = load i32, ptr %6, align 4
  ret i32 %213
}