; Function Attrs: nounwind uwtable
define i32 @kinLsSolve(ptr noundef %0, ptr noundef %1, ptr noundef %2, ptr noundef writeonly captures(none) %3, ptr noundef writeonly captures(none) %4) #0 {
  %6 = getelementptr inbounds nuw i8, ptr %0, i64 584
  %7 = load ptr, ptr %6, align 8, !tbaa !55
  %8 = icmp eq ptr %7, null
  br i1 %8, label %9, label %10

9:                                                ; preds = %5
  tail call void (ptr, i32, i32, ptr, ptr, ptr, ...) @KINProcessError(ptr noundef nonnull %0, i32 noundef -2, i32 noundef 1216, ptr noundef nonnull @__func__.kinLsSolve, ptr noundef nonnull @.str, ptr noundef nonnull @.str.26) #13
  br label %97

10:                                               ; preds = %5
  %11 = getelementptr inbounds nuw i8, ptr %0, i64 160
  %12 = load double, ptr %11, align 8, !tbaa !77
  %13 = getelementptr inbounds nuw i8, ptr %7, i64 48
  %14 = load double, ptr %13, align 8, !tbaa !53
  tail call void @N_VConst(double noundef 0.000000e+00, ptr noundef %1) #13
  %15 = getelementptr inbounds nuw i8, ptr %7, i64 32
  %16 = load ptr, ptr %15, align 8, !tbaa !37
  %17 = tail call i32 @SUNLinSolSetZeroGuess(ptr noundef %16, i32 noundef 1) #13
  %.not = icmp eq i32 %17, 0
  br i1 %.not, label %18, label %97

18:                                               ; preds = %10
  %19 = fmul double %12, %14
  %20 = getelementptr inbounds nuw i8, ptr %7, i64 112
  store i32 1, ptr %20, align 8, !tbaa !78
  %21 = load ptr, ptr %15, align 8, !tbaa !37
  %22 = getelementptr inbounds nuw i8, ptr %7, i64 40
  %23 = load ptr, ptr %22, align 8, !tbaa !54
  %24 = tail call i32 @SUNLinSolSolve(ptr noundef %21, ptr noundef %23, ptr noundef %1, ptr noundef %2, double noundef %19) #13
  %25 = load ptr, ptr %15, align 8, !tbaa !37
  %26 = getelementptr inbounds nuw i8, ptr %25, i64 8
  %27 = load ptr, ptr %26, align 8, !tbaa !3
  %28 = getelementptr inbounds nuw i8, ptr %27, i64 80
  %29 = load ptr, ptr %28, align 8, !tbaa !79
  %.not70 = icmp eq ptr %29, null
  br i1 %.not70, label %32, label %30

30:                                               ; preds = %18
  %31 = tail call double @SUNLinSolResNorm(ptr noundef nonnull %25) #13
  %.pre = load ptr, ptr %15, align 8, !tbaa !37
  %.phi.trans.insert = getelementptr inbounds nuw i8, ptr %.pre, i64 8
  %.pre80 = load ptr, ptr %.phi.trans.insert, align 8, !tbaa !3
  br label %32

32:                                               ; preds = %30, %18
  %33 = phi ptr [ %.pre80, %30 ], [ %27, %18 ]
  %34 = phi ptr [ %.pre, %30 ], [ %25, %18 ]
  %.065 = phi double [ %31, %30 ], [ 0.000000e+00, %18 ]
  %35 = getelementptr inbounds nuw i8, ptr %33, i64 72
  %36 = load ptr, ptr %35, align 8, !tbaa !80
  %.not71 = icmp eq ptr %36, null
  br i1 %.not71, label %39, label %37

37:                                               ; preds = %32
  %38 = tail call i32 @SUNLinSolNumIters(ptr noundef nonnull %34) #13
  br label %39

39:                                               ; preds = %37, %32
  %.066 = phi i32 [ %38, %37 ], [ 0, %32 ]
  %40 = load i32, ptr %7, align 8, !tbaa !69
  %.not72 = icmp eq i32 %40, 0
  br i1 %.not72, label %42, label %41

41:                                               ; preds = %39
  tail call void (ptr, i32, ptr, ptr, ptr, ...) @KINPrintInfo(ptr noundef nonnull %0, i32 noundef 101, ptr noundef nonnull @.str.33, ptr noundef nonnull @__func__.kinLsSolve, ptr noundef nonnull @.str.34, i32 noundef %.066) #13
  br label %42

42:                                               ; preds = %41, %39
  %43 = sext i32 %.066 to i64
  %44 = getelementptr inbounds nuw i8, ptr %7, i64 80
  %45 = load i64, ptr %44, align 8, !tbaa !81
  %46 = add nsw i64 %45, %43
  store i64 %46, ptr %44, align 8, !tbaa !81
  %.not79 = icmp eq i32 %24, 0
  br i1 %.not79, label %.thread, label %48

.thread:                                          ; preds = %42
  %47 = getelementptr inbounds nuw i8, ptr %7, i64 116
  store i32 0, ptr %47, align 4, !tbaa !51
  br label %58

48:                                               ; preds = %42
  %49 = getelementptr inbounds nuw i8, ptr %7, i64 96
  %50 = load i64, ptr %49, align 8, !tbaa !82
  %51 = add nsw i64 %50, 1
  store i64 %51, ptr %49, align 8, !tbaa !82
  %52 = getelementptr inbounds nuw i8, ptr %7, i64 116
  store i32 %24, ptr %52, align 4, !tbaa !51
  switch i32 %24, label %57 [
    i32 801, label %58
    i32 806, label %53
    i32 803, label %97
    i32 805, label %97
    i32 -808, label %56
    i32 -805, label %55
    i32 -9987, label %54
  ]

53:                                               ; preds = %48
  tail call void (ptr, i32, i32, ptr, ptr, ptr, ...) @KINProcessError(ptr noundef nonnull %0, i32 noundef 806, i32 noundef 1281, ptr noundef nonnull @__func__.kinLsSolve, ptr noundef nonnull @.str, ptr noundef nonnull @.str.35) #13
  br label %57

54:                                               ; preds = %48
  tail call void (ptr, i32, i32, ptr, ptr, ptr, ...) @KINProcessError(ptr noundef nonnull %0, i32 noundef -9987, i32 noundef 1285, ptr noundef nonnull @__func__.kinLsSolve, ptr noundef nonnull @.str, ptr noundef nonnull @.str.35) #13
  br label %57

55:                                               ; preds = %48
  tail call void (ptr, i32, i32, ptr, ptr, ptr, ...) @KINProcessError(ptr noundef nonnull %0, i32 noundef -805, i32 noundef 1289, ptr noundef nonnull @__func__.kinLsSolve, ptr noundef nonnull @.str, ptr noundef nonnull @.str.36) #13
  br label %57

56:                                               ; preds = %48
  tail call void (ptr, i32, i32, ptr, ptr, ptr, ...) @KINProcessError(ptr noundef nonnull %0, i32 noundef -808, i32 noundef 1293, ptr noundef nonnull @__func__.kinLsSolve, ptr noundef nonnull @.str, ptr noundef nonnull @.str.37) #13
  br label %57

57:                                               ; preds = %48, %56, %55, %54, %53
  br label %97

58:                                               ; preds = %.thread, %48
  %59 = phi ptr [ %47, %.thread ], [ %52, %48 ]
  %60 = getelementptr inbounds nuw i8, ptr %0, i64 48
  %61 = load i32, ptr %60, align 8, !tbaa !65
  %.not73 = icmp eq i32 %61, 3
  br i1 %.not73, label %92, label %62

62:                                               ; preds = %58
  %63 = getelementptr inbounds nuw i8, ptr %0, i64 576
  %64 = load i32, ptr %63, align 8, !tbaa !33
  %.not74 = icmp eq i32 %64, 0
  br i1 %.not74, label %.thread77, label %65

65:                                               ; preds = %62
  %66 = getelementptr inbounds nuw i8, ptr %0, i64 88
  %67 = load i32, ptr %66, align 8, !tbaa !83
  %68 = icmp eq i32 %67, 1
  br i1 %68, label %69, label %.thread77

69:                                               ; preds = %65
  %70 = tail call i32 @kinLsATimes(ptr noundef nonnull %0, ptr noundef %1, ptr noundef %2)
  %71 = icmp sgt i32 %70, 0
  br i1 %71, label %72, label %73

72:                                               ; preds = %69
  store i32 803, ptr %59, align 4, !tbaa !51
  br label %97

73:                                               ; preds = %69
  %74 = icmp slt i32 %70, 0
  br i1 %74, label %75, label %76

75:                                               ; preds = %73
  store i32 -805, ptr %59, align 4, !tbaa !51
  br label %97

76:                                               ; preds = %73
  %77 = getelementptr inbounds nuw i8, ptr %0, i64 304
  %78 = load ptr, ptr %77, align 8, !tbaa !68
  %79 = tail call double @N_VWL2Norm(ptr noundef %2, ptr noundef %78) #13
  store double %79, ptr %3, align 8, !tbaa !84
  %.pr.pre = load i32, ptr %63, align 8, !tbaa !33
  %80 = icmp eq i32 %.pr.pre, 0
  br i1 %80, label %.thread77, label %81

81:                                               ; preds = %76
  %.pr = load i32, ptr %66, align 8, !tbaa !83
  %82 = icmp eq i32 %.pr, 1
  br i1 %82, label %85, label %.thread77

.thread77:                                        ; preds = %65, %62, %81, %76
  %83 = load i32, ptr %60, align 8, !tbaa !65
  %84 = icmp eq i32 %83, 1
  br i1 %84, label %85, label %92

85:                                               ; preds = %.thread77, %81
  %86 = getelementptr inbounds nuw i8, ptr %0, i64 304
  %87 = load ptr, ptr %86, align 8, !tbaa !68
  tail call void @N_VProd(ptr noundef %2, ptr noundef %87, ptr noundef %2) #13
  %88 = load ptr, ptr %86, align 8, !tbaa !68
  tail call void @N_VProd(ptr noundef %2, ptr noundef %88, ptr noundef %2) #13
  %89 = getelementptr inbounds nuw i8, ptr %0, i64 280
  %90 = load ptr, ptr %89, align 8, !tbaa !73
  %91 = tail call double @N_VDotProd(ptr noundef %90, ptr noundef %2) #13
  store double %91, ptr %4, align 8, !tbaa !84
  br label %92

92:                                               ; preds = %.thread77, %85, %58
  %93 = getelementptr inbounds nuw i8, ptr %0, i64 576
  %94 = load i32, ptr %93, align 8, !tbaa !33
  %.not76 = icmp eq i32 %94, 0
  br i1 %.not76, label %97, label %95

95:                                               ; preds = %92
  %96 = load double, ptr %11, align 8, !tbaa !77
  tail call void (ptr, i32, ptr, ptr, ptr, ...) @KINPrintInfo(ptr noundef nonnull %0, i32 noundef 102, ptr noundef nonnull @.str.33, ptr noundef nonnull @__func__.kinLsSolve, ptr noundef nonnull @.str.38, double noundef %.065, double noundef %96) #13
  br label %97

97:                                               ; preds = %92, %95, %48, %48, %10, %75, %72, %57, %9
  %.0 = phi i32 [ -2, %9 ], [ %24, %57 ], [ 1, %72 ], [ -1, %75 ], [ -1, %10 ], [ 1, %48 ], [ 1, %48 ], [ 0, %95 ], [ 0, %92 ]
  ret i32 %.0
}